target datalayout = "e-m:e-p270:32:32-p271:32:32-p272:64:64-i64:64-i128:128-f80:128-n8:16:32:64-S128"
target triple = "x86_64-pc-linux-gnu"

%struct.RelationData = type { %struct.RelFileLocator, ptr, i32, i32, i8, i8, i8, i8, i8, i32, i32, i32, i32, ptr, ptr, i32, %struct.LockInfoData, ptr, ptr, ptr, ptr, ptr, i8, ptr, ptr, ptr, ptr, ptr, ptr, i32, ptr, i8, ptr, ptr, i32, i8, i32, ptr, i8, ptr, ptr, ptr, ptr, ptr, ptr, ptr, i32, ptr, ptr, ptr, ptr, ptr, ptr, ptr, ptr, ptr, ptr, ptr, ptr, ptr, ptr, ptr, ptr, ptr, ptr, ptr, i32, i8, ptr }
%struct.RelFileLocator = type { i32, i32, i32 }
%struct.LockInfoData = type { %struct.LockRelId }
%struct.LockRelId = type { i32, i32 }
%struct.FormData_pg_index = type { i32, i32, i16, i16, i8, i8, i8, i8, i8, i8, i8, i8, i8, i8, i8, %struct.int2vector }
%struct.int2vector = type { i32, i32, i32, i32, i32, i32, [0 x i16] }
%struct.FormData_pg_class = type { i32, %struct.nameData, i32, i32, i32, i32, i32, i32, i32, i32, float, i32, i32, i8, i8, i8, i8, i16, i16, i8, i8, i8, i8, i8, i8, i8, i8, i32, i32, i32 }
%struct.nameData = type { [64 x i8] }

@.str.1 = private unnamed_addr constant [11 x i8] c"nbtutils.c\00", align 1
@.str.16 = private unnamed_addr constant [40 x i8] c"index \22%s\22 can safely use deduplication\00", align 1
@__func__._bt_allequalimage = private unnamed_addr constant [18 x i8] c"_bt_allequalimage\00", align 1
@.str.17 = private unnamed_addr constant [36 x i8] c"index \22%s\22 cannot use deduplication\00", align 1

; Function Attrs: inlinehint nounwind uwtable
define internal zeroext i1 @DatumGetBool(i64 noundef %0) #2 {
  %2 = alloca i64, align 8
  store i64 %0, ptr %2, align 8
  %3 = load i64, ptr %2, align 8
  %4 = icmp ne i64 %3, 0
  ret i1 %4
}

; Function Attrs: inlinehint nounwind uwtable
define internal i64 @ObjectIdGetDatum(i32 noundef %0) #2 {
  %2 = alloca i32, align 4
  store i32 %0, ptr %2, align 4
  %3 = load i32, ptr %2, align 4
  %4 = zext i32 %3 to i64
  ret i64 %4
}

; Function Attrs: nounwind uwtable
define dso_local zeroext i1 @_bt_allequalimage(ptr noundef %0, i1 noundef zeroext %1) #0 {
  %3 = alloca i1, align 1
  %4 = alloca ptr, align 8
  %5 = alloca i8, align 1
  %6 = alloca i8, align 1
  %7 = alloca i32, align 4
  %8 = alloca i32, align 4
  %9 = alloca i32, align 4
  %10 = alloca i32, align 4
  %11 = alloca i32, align 4
  %12 = alloca i32, align 4
  store ptr %0, ptr %4, align 8
  %13 = zext i1 %1 to i8
  store i8 %13, ptr %5, align 1
  call void @llvm.lifetime.start.p0(i64 1, ptr %6) #8
  store i8 1, ptr %6, align 1
  %14 = load ptr, ptr %4, align 8
  %15 = getelementptr inbounds nuw %struct.RelationData, ptr %14, i32 0, i32 48
  %16 = load ptr, ptr %15, align 8
  %17 = getelementptr inbounds nuw %struct.FormData_pg_index, ptr %16, i32 0, i32 2
  %18 = load i16, ptr %17, align 4
  %19 = sext i16 %18 to i32
  %20 = load ptr, ptr %4, align 8
  %21 = getelementptr inbounds nuw %struct.RelationData, ptr %20, i32 0, i32 48
  %22 = load ptr, ptr %21, align 8
  %23 = getelementptr inbounds nuw %struct.FormData_pg_index, ptr %22, i32 0, i32 3
  %24 = load i16, ptr %23, align 2
  %25 = sext i16 %24 to i32
  %26 = icmp ne i32 %19, %25
  br i1 %26, label %27, label %28

27:                                               ; preds = %2
  store i1 false, ptr %3, align 1
  store i32 1, ptr %7, align 4
  br label %127

28:                                               ; preds = %2
  call void @llvm.lifetime.start.p0(i64 4, ptr %8) #8
  store i32 0, ptr %8, align 4
  br label %29

29:                                               ; preds = %79, %28
  %30 = load i32, ptr %8, align 4
  %31 = load ptr, ptr %4, align 8
  %32 = getelementptr inbounds nuw %struct.RelationData, ptr %31, i32 0, i32 48
  %33 = load ptr, ptr %32, align 8
  %34 = getelementptr inbounds nuw %struct.FormData_pg_index, ptr %33, i32 0, i32 3
  %35 = load i16, ptr %34, align 2
  %36 = sext i16 %35 to i32
  %37 = icmp slt i32 %30, %36
  br i1 %37, label %39, label %38

38:                                               ; preds = %29
  store i32 2, ptr %7, align 4
  br label %82

39:                                               ; preds = %29
  call void @llvm.lifetime.start.p0(i64 4, ptr %9) #8
  %40 = load ptr, ptr %4, align 8
  %41 = getelementptr inbounds nuw %struct.RelationData, ptr %40, i32 0, i32 52
  %42 = load ptr, ptr %41, align 8
  %43 = load i32, ptr %8, align 4
  %44 = sext i32 %43 to i64
  %45 = getelementptr inbounds i32, ptr %42, i64 %44
  %46 = load i32, ptr %45, align 4
  store i32 %46, ptr %9, align 4
  call void @llvm.lifetime.start.p0(i64 4, ptr %10) #8
  %47 = load ptr, ptr %4, align 8
  %48 = getelementptr inbounds nuw %struct.RelationData, ptr %47, i32 0, i32 53
  %49 = load ptr, ptr %48, align 8
  %50 = load i32, ptr %8, align 4
  %51 = sext i32 %50 to i64
  %52 = getelementptr inbounds i32, ptr %49, i64 %51
  %53 = load i32, ptr %52, align 4
  store i32 %53, ptr %10, align 4
  call void @llvm.lifetime.start.p0(i64 4, ptr %11) #8
  %54 = load ptr, ptr %4, align 8
  %55 = getelementptr inbounds nuw %struct.RelationData, ptr %54, i32 0, i32 62
  %56 = load ptr, ptr %55, align 8
  %57 = load i32, ptr %8, align 4
  %58 = sext i32 %57 to i64
  %59 = getelementptr inbounds i32, ptr %56, i64 %58
  %60 = load i32, ptr %59, align 4
  store i32 %60, ptr %11, align 4
  call void @llvm.lifetime.start.p0(i64 4, ptr %12) #8
  %61 = load i32, ptr %9, align 4
  %62 = load i32, ptr %10, align 4
  %63 = load i32, ptr %10, align 4
  %64 = call i32 @get_opfamily_proc(i32 noundef %61, i32 noundef %62, i32 noundef %63, i16 noundef signext 4)
  store i32 %64, ptr %12, align 4
  %65 = load i32, ptr %12, align 4
  %66 = icmp ne i32 %65, 0
  br i1 %66, label %67, label %74

67:                                               ; preds = %39
  %68 = load i32, ptr %12, align 4
  %69 = load i32, ptr %11, align 4
  %70 = load i32, ptr %10, align 4
  %71 = call i64 @ObjectIdGetDatum(i32 noundef %70)
  %72 = call i64 @OidFunctionCall1Coll(i32 noundef %68, i32 noundef %69, i64 noundef %71)
  %73 = call zeroext i1 @DatumGetBool(i64 noundef %72)
  br i1 %73, label %75, label %74

74:                                               ; preds = %67, %39
  store i8 0, ptr %6, align 1
  store i32 2, ptr %7, align 4
  br label %76

75:                                               ; preds = %67
  store i32 0, ptr %7, align 4
  br label %76

76:                                               ; preds = %75, %74
  call void @llvm.lifetime.end.p0(i64 4, ptr %12) #8
  call void @llvm.lifetime.end.p0(i64 4, ptr %11) #8
  call void @llvm.lifetime.end.p0(i64 4, ptr %10) #8
  call void @llvm.lifetime.end.p0(i64 4, ptr %9) #8
  %77 = load i32, ptr %7, align 4
  switch i32 %77, label %82 [
    i32 0, label %78
  ]

78:                                               ; preds = %76
  br label %79

79:                                               ; preds = %78
  %80 = load i32, ptr %8, align 4
  %81 = add i32 %80, 1
  store i32 %81, ptr %8, align 4
  br label %29, !llvm.loop !22

82:                                               ; preds = %76, %38
  call void @llvm.lifetime.end.p0(i64 4, ptr %8) #8
  br label %83

83:                                               ; preds = %82
  %84 = load i8, ptr %5, align 1, !range !4, !noundef !5
  %85 = trunc i8 %84 to i1
  br i1 %85, label %86, label %124

86:                                               ; preds = %83
  %87 = load i8, ptr %6, align 1, !range !4, !noundef !5
  %88 = trunc i8 %87 to i1
  br i1 %88, label %89, label %106

89:                                               ; preds = %86
  br label %90

90:                                               ; preds = %89
  br i1 false, label %91, label %93

91:                                               ; preds = %90
  %92 = call zeroext i1 @errstart_cold(i32 noundef 14, ptr noundef null) #9
  br i1 %92, label %95, label %103

93:                                               ; preds = %90
  %94 = call zeroext i1 @errstart(i32 noundef 14, ptr noundef null)
  br i1 %94, label %95, label %103

95:                                               ; preds = %93, %91
  %96 = load ptr, ptr %4, align 8
  %97 = getelementptr inbounds nuw %struct.RelationData, ptr %96, i32 0, i32 13
  %98 = load ptr, ptr %97, align 8
  %99 = getelementptr inbounds nuw %struct.FormData_pg_class, ptr %98, i32 0, i32 1
  %100 = getelementptr inbounds nuw %struct.nameData, ptr %99, i32 0, i32 0
  %101 = getelementptr inbounds [64 x i8], ptr %100, i64 0, i64 0
  %102 = call i32 (ptr, ...) @errmsg_internal(ptr noundef @.str.16, ptr noundef %101)
  call void @errfinish(ptr noundef @.str.1, i32 noundef 3333, ptr noundef @__func__._bt_allequalimage)
  br label %103

103:                                              ; preds = %95, %93, %91
  br label %104

104:                                              ; preds = %103
  br label %105

105:                                              ; preds = %104
  br label %123

106:                                              ; preds = %86
  br label %107

107:                                              ; preds = %106
  br i1 false, label %108, label %110

108:                                              ; preds = %107
  %109 = call zeroext i1 @errstart_cold(i32 noundef 14, ptr noundef null) #9
  br i1 %109, label %112, label %120

110:                                              ; preds = %107
  %111 = call zeroext i1 @errstart(i32 noundef 14, ptr noundef null)
  br i1 %111, label %112, label %120

112:                                              ; preds = %110, %108
  %113 = load ptr, ptr %4, align 8
  %114 = getelementptr inbounds nuw %struct.RelationData, ptr %113, i32 0, i32 13
  %115 = load ptr, ptr %114, align 8
  %116 = getelementptr inbounds nuw %struct.FormData_pg_class, ptr %115, i32 0, i32 1
  %117 = getelementptr inbounds nuw %struct.nameData, ptr %116, i32 0, i32 0
  %118 = getelementptr inbounds [64 x i8], ptr %117, i64 0, i64 0
  %119 = call i32 (ptr, ...) @errmsg_internal(ptr noundef @.str.17, ptr noundef %118)
  call void @errfinish(ptr noundef @.str.1, i32 noundef 3336, ptr noundef @__func__._bt_allequalimage)
  br label %120

120:                                              ; preds = %112, %110, %108
  br label %121

121:                                              ; preds = %120
  br label %122

122:                                              ; preds = %121
  br label %123

123:                                              ; preds = %122, %105
  br label %124

124:                                              ; preds = %123, %83
  %125 = load i8, ptr %6, align 1, !range !4, !noundef !5
  %126 = trunc i8 %125 to i1
  store i1 %126, ptr %3, align 1
  store i32 1, ptr %7, align 4
  br label %127

127:                                              ; preds = %124, %27
  call void @llvm.lifetime.end.p0(i64 1, ptr %6) #8
  %128 = load i1, ptr %3, align 1
  ret i1 %128
}