; Function Attrs: nounwind uwtable
define dso_local noundef zeroext i1 @_bt_allequalimage(ptr noundef readonly captures(none) %0, i1 noundef zeroext %1) local_unnamed_addr #0 {
  %3 = getelementptr inbounds nuw i8, ptr %0, i64 328
  %4 = load ptr, ptr %3, align 8
  %5 = getelementptr inbounds nuw i8, ptr %4, i64 8
  %6 = load i16, ptr %5, align 4
  %7 = getelementptr inbounds nuw i8, ptr %4, i64 10
  %8 = load i16, ptr %7, align 2
  %.not = icmp eq i16 %6, %8
  br i1 %.not, label %.preheader, label %38

.preheader:                                       ; preds = %2
  %9 = getelementptr inbounds nuw i8, ptr %0, i64 360
  %10 = icmp slt i16 %6, 1
  br i1 %10, label %.thread, label %.lr.ph

.lr.ph:                                           ; preds = %.preheader
  %11 = getelementptr inbounds nuw i8, ptr %0, i64 368
  %12 = getelementptr inbounds nuw i8, ptr %0, i64 440
  br label %18

13:                                               ; preds = %29
  %indvars.iv.next = add nuw nsw i64 %indvars.iv, 1
  %14 = load ptr, ptr %3, align 8
  %15 = getelementptr inbounds nuw i8, ptr %14, i64 10
  %16 = load i16, ptr %15, align 2
  %17 = sext i16 %16 to i64
  %.not38 = icmp slt i64 %indvars.iv.next, %17
  br i1 %.not38, label %18, label %.thread, !llvm.loop !24

18:                                               ; preds = %.lr.ph, %13
  %indvars.iv = phi i64 [ 0, %.lr.ph ], [ %indvars.iv.next, %13 ]
  %19 = load ptr, ptr %9, align 8
  %20 = getelementptr inbounds nuw i32, ptr %19, i64 %indvars.iv
  %21 = load i32, ptr %20, align 4
  %22 = load ptr, ptr %11, align 8
  %23 = getelementptr inbounds nuw i32, ptr %22, i64 %indvars.iv
  %24 = load i32, ptr %23, align 4
  %25 = load ptr, ptr %12, align 8
  %26 = getelementptr inbounds nuw i32, ptr %25, i64 %indvars.iv
  %27 = load i32, ptr %26, align 4
  %28 = tail call i32 @get_opfamily_proc(i32 noundef %21, i32 noundef %24, i32 noundef %24, i16 noundef signext 4) #14
  %.not28 = icmp eq i32 %28, 0
  br i1 %.not28, label %.thread, label %29

29:                                               ; preds = %18
  %30 = zext i32 %24 to i64
  %31 = tail call i64 @OidFunctionCall1Coll(i32 noundef %28, i32 noundef %27, i64 noundef %30) #14
  %.not32 = icmp eq i64 %31, 0
  br i1 %.not32, label %.thread, label %13

.thread:                                          ; preds = %29, %13, %18, %.preheader
  %.lcssa = phi i1 [ true, %.preheader ], [ false, %18 ], [ true, %13 ], [ false, %29 ]
  br i1 %1, label %32, label %38

32:                                               ; preds = %.thread
  %33 = tail call zeroext i1 @errstart(i32 noundef 14, ptr noundef null) #14
  br i1 %33, label %.sink.split, label %38

.sink.split:                                      ; preds = %32
  %. = select i1 %.lcssa, i32 3333, i32 3336
  %.str.16..str.17 = select i1 %.lcssa, ptr @.str.16, ptr @.str.17
  %34 = getelementptr inbounds nuw i8, ptr %0, i64 56
  %35 = load ptr, ptr %34, align 8
  %36 = getelementptr inbounds nuw i8, ptr %35, i64 4
  %37 = tail call i32 (ptr, ...) @errmsg_internal(ptr noundef nonnull %.str.16..str.17, ptr noundef nonnull %36) #14
  tail call void @errfinish(ptr noundef nonnull @.str.1, i32 noundef %., ptr noundef nonnull @__func__._bt_allequalimage) #14
  br label %38

38:                                               ; preds = %32, %.sink.split, %.thread, %2
  %.0 = phi i1 [ false, %2 ], [ %.lcssa, %.thread ], [ %.lcssa, %.sink.split ], [ %.lcssa, %32 ]
  ret i1 %.0
}